target datalayout = "e-m:e-p270:32:32-p271:32:32-p272:64:64-i64:64-i128:128-f80:128-n8:16:32:64-S128"
target triple = "x86_64-pc-linux-gnu"

%struct.Abc_Cex_t_ = type { i32, i32, i32, i32, i32, [0 x i32] }

; Function Attrs: inlinehint nounwind uwtable
define internal i32 @Abc_BitWordNum(i32 noundef %0) #2 {
  %2 = alloca i32, align 4
  store i32 %0, ptr %2, align 4, !tbaa !3
  %3 = load i32, ptr %2, align 4, !tbaa !3
  %4 = ashr i32 %3, 5
  %5 = load i32, ptr %2, align 4, !tbaa !3
  %6 = and i32 %5, 31
  %7 = icmp sgt i32 %6, 0
  %8 = zext i1 %7 to i32
  %9 = add nsw i32 %4, %8
  ret i32 %9
}

; Function Attrs: nounwind uwtable
define ptr @Abc_CexAlloc(i32 noundef %0, i32 noundef %1, i32 noundef %2) #0 {
  %4 = alloca i32, align 4
  %5 = alloca i32, align 4
  %6 = alloca i32, align 4
  %7 = alloca ptr, align 8
  %8 = alloca i32, align 4
  store i32 %0, ptr %4, align 4, !tbaa !3
  store i32 %1, ptr %5, align 4, !tbaa !3
  store i32 %2, ptr %6, align 4, !tbaa !3
  call void @llvm.lifetime.start.p0(i64 8, ptr %7) #8
  call void @llvm.lifetime.start.p0(i64 4, ptr %8) #8
  %9 = load i32, ptr %4, align 4, !tbaa !3
  %10 = load i32, ptr %5, align 4, !tbaa !3
  %11 = load i32, ptr %6, align 4, !tbaa !3
  %12 = mul nsw i32 %10, %11
  %13 = add nsw i32 %9, %12
  %14 = call i32 @Abc_BitWordNum(i32 noundef %13)
  store i32 %14, ptr %8, align 4, !tbaa !3
  %15 = load i32, ptr %8, align 4, !tbaa !3
  %16 = sext i32 %15 to i64
  %17 = mul i64 4, %16
  %18 = add i64 20, %17
  %19 = mul i64 1, %18
  %20 = call noalias ptr @malloc(i64 noundef %19) #9
  store ptr %20, ptr %7, align 8, !tbaa !7
  %21 = load ptr, ptr %7, align 8, !tbaa !7
  %22 = load i32, ptr %8, align 4, !tbaa !3
  %23 = sext i32 %22 to i64
  %24 = mul i64 4, %23
  %25 = add i64 20, %24
  call void @llvm.memset.p0.i64(ptr align 4 %21, i8 0, i64 %25, i1 false)
  %26 = load i32, ptr %4, align 4, !tbaa !3
  %27 = load ptr, ptr %7, align 8, !tbaa !7
  %28 = getelementptr inbounds nuw %struct.Abc_Cex_t_, ptr %27, i32 0, i32 2
  store i32 %26, ptr %28, align 4, !tbaa !10
  %29 = load i32, ptr %5, align 4, !tbaa !3
  %30 = load ptr, ptr %7, align 8, !tbaa !7
  %31 = getelementptr inbounds nuw %struct.Abc_Cex_t_, ptr %30, i32 0, i32 3
  store i32 %29, ptr %31, align 4, !tbaa !12
  %32 = load i32, ptr %4, align 4, !tbaa !3
  %33 = load i32, ptr %5, align 4, !tbaa !3
  %34 = load i32, ptr %6, align 4, !tbaa !3
  %35 = mul nsw i32 %33, %34
  %36 = add nsw i32 %32, %35
  %37 = load ptr, ptr %7, align 8, !tbaa !7
  %38 = getelementptr inbounds nuw %struct.Abc_Cex_t_, ptr %37, i32 0, i32 4
  store i32 %36, ptr %38, align 4, !tbaa !13
  %39 = load ptr, ptr %7, align 8, !tbaa !7
  call void @llvm.lifetime.end.p0(i64 4, ptr %8) #8
  call void @llvm.lifetime.end.p0(i64 8, ptr %7) #8
  ret ptr %39
}