; Function Attrs: mustprogress nofree nounwind willreturn memory(write, argmem: none, inaccessiblemem: readwrite) uwtable
define noalias noundef ptr @Abc_CexAlloc(i32 noundef %0, i32 noundef %1, i32 noundef %2) local_unnamed_addr #0 {
  %4 = mul nsw i32 %2, %1
  %5 = add nsw i32 %4, %0
  %6 = ashr i32 %5, 5
  %7 = and i32 %5, 31
  %8 = icmp ne i32 %7, 0
  %9 = zext i1 %8 to i32
  %10 = add nsw i32 %6, %9
  %11 = sext i32 %10 to i64
  %12 = shl nsw i64 %11, 2
  %13 = add nsw i64 %12, 20
  %calloc = tail call ptr @calloc(i64 1, i64 %13)
  %14 = getelementptr inbounds nuw i8, ptr %calloc, i64 8
  store i32 %0, ptr %14, align 4, !tbaa !3
  %15 = getelementptr inbounds nuw i8, ptr %calloc, i64 12
  store i32 %1, ptr %15, align 4, !tbaa !8
  %16 = getelementptr inbounds nuw i8, ptr %calloc, i64 16
  store i32 %5, ptr %16, align 4, !tbaa !9
  ret ptr %calloc
}